target datalayout = "e-m:e-p270:32:32-p271:32:32-p272:64:64-i64:64-i128:128-f80:128-n8:16:32:64-S128"
target triple = "x86_64-pc-linux-gnu"

%struct.strbuf = type { i64, i64, ptr }
%union.pthread_mutex_t = type { %struct.__pthread_mutex_s }
%struct.__pthread_mutex_s = type { i32, i32, i32, i32, i32, i16, i16, %struct.__pthread_internal_list }
%struct.__pthread_internal_list = type { ptr, ptr }
%struct.tr2tls_thread_ctx = type { ptr, ptr, i64, i64, i32, %struct.tr2_timer_block, %struct.tr2_counter_block, i8 }
%struct.tr2_timer_block = type { [2 x %struct.tr2_timer] }
%struct.tr2_timer = type { i64, i64, i64, i64, i64, i32 }
%struct.tr2_counter_block = type { [6 x %struct.tr2_counter] }
%struct.tr2_counter = type { i64 }

@strbuf_slopbuf = external global [0 x i8], align 1
@__const.tr2tls_create_self.buf = private unnamed_addr constant %struct.strbuf { i64 0, i64 0, ptr @strbuf_slopbuf }, align 8
@tr2_next_thread_id = internal global i32 0, align 4
@.str = private unnamed_addr constant [8 x i8] c"th%02d:\00", align 1
@tr2tls_key = internal global i32 0, align 4
@tr2tls_mutex = internal global %union.pthread_mutex_t zeroinitializer, align 8
@.str.5 = private unnamed_addr constant [11 x i8] c"./strbuf.h\00", align 1
@.str.6 = private unnamed_addr constant [30 x i8] c"strbuf_setlen() beyond buffer\00", align 1

; Function Attrs: inlinehint nounwind uwtable
define internal void @strbuf_setlen(ptr noundef %0, i64 noundef %1) #4 {
  %3 = alloca ptr, align 8
  %4 = alloca i64, align 8
  store ptr %0, ptr %3, align 8, !tbaa !28
  store i64 %1, ptr %4, align 8, !tbaa !4
  %5 = load i64, ptr %4, align 8, !tbaa !4
  %6 = load ptr, ptr %3, align 8, !tbaa !28
  %7 = getelementptr inbounds nuw %struct.strbuf, ptr %6, i32 0, i32 0
  %8 = load i64, ptr %7, align 8, !tbaa !30
  %9 = icmp ne i64 %8, 0
  br i1 %9, label %10, label %15

10:                                               ; preds = %2
  %11 = load ptr, ptr %3, align 8, !tbaa !28
  %12 = getelementptr inbounds nuw %struct.strbuf, ptr %11, i32 0, i32 0
  %13 = load i64, ptr %12, align 8, !tbaa !30
  %14 = sub i64 %13, 1
  br label %16

15:                                               ; preds = %2
  br label %16

16:                                               ; preds = %15, %10
  %17 = phi i64 [ %14, %10 ], [ 0, %15 ]
  %18 = icmp ugt i64 %5, %17
  br i1 %18, label %19, label %20

19:                                               ; preds = %16
  call void (ptr, i32, ptr, ...) @BUG_fl(ptr noundef @.str.5, i32 noundef 167, ptr noundef @.str.6) #10
  unreachable

20:                                               ; preds = %16
  %21 = load i64, ptr %4, align 8, !tbaa !4
  %22 = load ptr, ptr %3, align 8, !tbaa !28
  %23 = getelementptr inbounds nuw %struct.strbuf, ptr %22, i32 0, i32 1
  store i64 %21, ptr %23, align 8, !tbaa !22
  %24 = load ptr, ptr %3, align 8, !tbaa !28
  %25 = getelementptr inbounds nuw %struct.strbuf, ptr %24, i32 0, i32 2
  %26 = load ptr, ptr %25, align 8, !tbaa !31
  %27 = icmp ne ptr %26, @strbuf_slopbuf
  br i1 %27, label %28, label %34

28:                                               ; preds = %20
  %29 = load ptr, ptr %3, align 8, !tbaa !28
  %30 = getelementptr inbounds nuw %struct.strbuf, ptr %29, i32 0, i32 2
  %31 = load ptr, ptr %30, align 8, !tbaa !31
  %32 = load i64, ptr %4, align 8, !tbaa !4
  %33 = getelementptr inbounds nuw i8, ptr %31, i64 %32
  store i8 0, ptr %33, align 1, !tbaa !32
  br label %35

34:                                               ; preds = %20
  br label %35

35:                                               ; preds = %34, %28
  ret void
}

; Function Attrs: inlinehint nounwind uwtable
define internal void @strbuf_addstr(ptr noundef %0, ptr noundef %1) #4 {
  %3 = alloca ptr, align 8
  %4 = alloca ptr, align 8
  store ptr %0, ptr %3, align 8, !tbaa !28
  store ptr %1, ptr %4, align 8, !tbaa !8
  %5 = load ptr, ptr %3, align 8, !tbaa !28
  %6 = load ptr, ptr %4, align 8, !tbaa !8
  %7 = load ptr, ptr %4, align 8, !tbaa !8
  %8 = call i64 @strlen(ptr noundef %7) #9
  call void @strbuf_add(ptr noundef %5, ptr noundef %6, i64 noundef %8)
  ret void
}

; Function Attrs: nounwind uwtable
define dso_local i32 @tr2tls_locked_increment(ptr noundef %0) #0 {
  %2 = alloca ptr, align 8
  %3 = alloca i32, align 4
  store ptr %0, ptr %2, align 8, !tbaa !26
  call void @llvm.lifetime.start.p0(i64 4, ptr %3) #8
  %4 = call i32 @pthread_mutex_lock(ptr noundef @tr2tls_mutex) #8
  %5 = load ptr, ptr %2, align 8, !tbaa !26
  %6 = load i32, ptr %5, align 4, !tbaa !25
  store i32 %6, ptr %3, align 4, !tbaa !25
  %7 = load i32, ptr %3, align 4, !tbaa !25
  %8 = add nsw i32 %7, 1
  %9 = load ptr, ptr %2, align 8, !tbaa !26
  store i32 %8, ptr %9, align 4, !tbaa !25
  %10 = call i32 @pthread_mutex_unlock(ptr noundef @tr2tls_mutex) #8
  %11 = load i32, ptr %3, align 4, !tbaa !25
  call void @llvm.lifetime.end.p0(i64 4, ptr %3) #8
  ret i32 %11
}

; Function Attrs: nounwind uwtable
define dso_local ptr @tr2tls_create_self(ptr noundef %0, i64 noundef %1) #0 {
  %3 = alloca ptr, align 8
  %4 = alloca i64, align 8
  %5 = alloca ptr, align 8
  %6 = alloca %struct.strbuf, align 8
  store ptr %0, ptr %3, align 8, !tbaa !8
  store i64 %1, ptr %4, align 8, !tbaa !4
  call void @llvm.lifetime.start.p0(i64 8, ptr %5) #8
  %7 = call ptr @xcalloc(i64 noundef 1, i64 noundef 192)
  store ptr %7, ptr %5, align 8, !tbaa !11
  call void @llvm.lifetime.start.p0(i64 24, ptr %6) #8
  call void @llvm.memcpy.p0.p0.i64(ptr align 8 %6, ptr align 8 @__const.tr2tls_create_self.buf, i64 24, i1 false)
  %8 = load ptr, ptr %5, align 8, !tbaa !11
  %9 = getelementptr inbounds nuw %struct.tr2tls_thread_ctx, ptr %8, i32 0, i32 2
  store i64 100, ptr %9, align 8, !tbaa !13
  %10 = load ptr, ptr %5, align 8, !tbaa !11
  %11 = getelementptr inbounds nuw %struct.tr2tls_thread_ctx, ptr %10, i32 0, i32 2
  %12 = load i64, ptr %11, align 8, !tbaa !13
  %13 = call ptr @xcalloc(i64 noundef %12, i64 noundef 8)
  %14 = load ptr, ptr %5, align 8, !tbaa !11
  %15 = getelementptr inbounds nuw %struct.tr2tls_thread_ctx, ptr %14, i32 0, i32 1
  store ptr %13, ptr %15, align 8, !tbaa !19
  %16 = load i64, ptr %4, align 8, !tbaa !4
  %17 = load ptr, ptr %5, align 8, !tbaa !11
  %18 = getelementptr inbounds nuw %struct.tr2tls_thread_ctx, ptr %17, i32 0, i32 1
  %19 = load ptr, ptr %18, align 8, !tbaa !19
  %20 = load ptr, ptr %5, align 8, !tbaa !11
  %21 = getelementptr inbounds nuw %struct.tr2tls_thread_ctx, ptr %20, i32 0, i32 3
  %22 = load i64, ptr %21, align 8, !tbaa !20
  %23 = add i64 %22, 1
  store i64 %23, ptr %21, align 8, !tbaa !20
  %24 = getelementptr inbounds nuw i64, ptr %19, i64 %22
  store i64 %16, ptr %24, align 8, !tbaa !4
  %25 = call i32 @tr2tls_locked_increment(ptr noundef @tr2_next_thread_id)
  %26 = load ptr, ptr %5, align 8, !tbaa !11
  %27 = getelementptr inbounds nuw %struct.tr2tls_thread_ctx, ptr %26, i32 0, i32 4
  store i32 %25, ptr %27, align 8, !tbaa !21
  call void @strbuf_init(ptr noundef %6, i64 noundef 0)
  %28 = load ptr, ptr %5, align 8, !tbaa !11
  %29 = getelementptr inbounds nuw %struct.tr2tls_thread_ctx, ptr %28, i32 0, i32 4
  %30 = load i32, ptr %29, align 8, !tbaa !21
  %31 = icmp ne i32 %30, 0
  br i1 %31, label %32, label %36

32:                                               ; preds = %2
  %33 = load ptr, ptr %5, align 8, !tbaa !11
  %34 = getelementptr inbounds nuw %struct.tr2tls_thread_ctx, ptr %33, i32 0, i32 4
  %35 = load i32, ptr %34, align 8, !tbaa !21
  call void (ptr, ptr, ...) @strbuf_addf(ptr noundef %6, ptr noundef @.str, i32 noundef %35)
  br label %36

36:                                               ; preds = %32, %2
  %37 = load ptr, ptr %3, align 8, !tbaa !8
  call void @strbuf_addstr(ptr noundef %6, ptr noundef %37)
  %38 = getelementptr inbounds nuw %struct.strbuf, ptr %6, i32 0, i32 1
  %39 = load i64, ptr %38, align 8, !tbaa !22
  %40 = icmp ugt i64 %39, 24
  br i1 %40, label %41, label %42

41:                                               ; preds = %36
  call void @strbuf_setlen(ptr noundef %6, i64 noundef 24)
  br label %42

42:                                               ; preds = %41, %36
  %43 = call ptr @strbuf_detach(ptr noundef %6, ptr noundef null)
  %44 = load ptr, ptr %5, align 8, !tbaa !11
  %45 = getelementptr inbounds nuw %struct.tr2tls_thread_ctx, ptr %44, i32 0, i32 0
  store ptr %43, ptr %45, align 8, !tbaa !24
  %46 = load i32, ptr @tr2tls_key, align 4, !tbaa !25
  %47 = load ptr, ptr %5, align 8, !tbaa !11
  %48 = call i32 @pthread_setspecific(i32 noundef %46, ptr noundef %47) #8
  %49 = load ptr, ptr %5, align 8, !tbaa !11
  call void @llvm.lifetime.end.p0(i64 24, ptr %6) #8
  call void @llvm.lifetime.end.p0(i64 8, ptr %5) #8
  ret ptr %49
}