; Function Attrs: nounwind uwtable
define dso_local ptr @tr2tls_create_self(ptr noundef %0, i64 noundef %1) local_unnamed_addr #0 {
  %3 = alloca %struct.strbuf, align 8
  %4 = tail call ptr @xcalloc(i64 noundef 1, i64 noundef 192) #11
  call void @llvm.lifetime.start.p0(i64 24, ptr nonnull %3) #11
  call void @llvm.memcpy.p0.p0.i64(ptr noundef nonnull align 8 dereferenceable(24) %3, ptr noundef nonnull align 8 dereferenceable(24) @__const.tr2tls_create_self.buf, i64 24, i1 false)
  %5 = getelementptr inbounds nuw i8, ptr %4, i64 16
  store i64 100, ptr %5, align 8, !tbaa !8
  %6 = tail call ptr @xcalloc(i64 noundef 100, i64 noundef 8) #11
  %7 = getelementptr inbounds nuw i8, ptr %4, i64 8
  store ptr %6, ptr %7, align 8, !tbaa !16
  %8 = getelementptr inbounds nuw i8, ptr %4, i64 24
  %9 = load i64, ptr %8, align 8, !tbaa !17
  %10 = add i64 %9, 1
  store i64 %10, ptr %8, align 8, !tbaa !17
  %11 = getelementptr inbounds nuw i64, ptr %6, i64 %9
  store i64 %1, ptr %11, align 8, !tbaa !4
  %12 = tail call i32 @pthread_mutex_lock(ptr noundef nonnull @tr2tls_mutex) #11
  %13 = load i32, ptr @tr2_next_thread_id, align 4, !tbaa !18
  %14 = add nsw i32 %13, 1
  store i32 %14, ptr @tr2_next_thread_id, align 4, !tbaa !18
  %15 = tail call i32 @pthread_mutex_unlock(ptr noundef nonnull @tr2tls_mutex) #11
  %16 = getelementptr inbounds nuw i8, ptr %4, i64 32
  store i32 %13, ptr %16, align 8, !tbaa !19
  call void @strbuf_init(ptr noundef nonnull %3, i64 noundef 0) #11
  %17 = load i32, ptr %16, align 8, !tbaa !19
  %.not = icmp eq i32 %17, 0
  br i1 %.not, label %19, label %18

18:                                               ; preds = %2
  call void (ptr, ptr, ...) @strbuf_addf(ptr noundef nonnull %3, ptr noundef nonnull @.str, i32 noundef %17) #11
  br label %19

19:                                               ; preds = %18, %2
  %20 = call i64 @strlen(ptr noundef nonnull dereferenceable(1) %0) #12
  call void @strbuf_add(ptr noundef nonnull %3, ptr noundef nonnull %0, i64 noundef %20) #11
  %21 = getelementptr inbounds nuw i8, ptr %3, i64 8
  %22 = load i64, ptr %21, align 8, !tbaa !20
  %23 = icmp ugt i64 %22, 24
  br i1 %23, label %24, label %strbuf_setlen.exit

24:                                               ; preds = %19
  %25 = load i64, ptr %3, align 8, !tbaa !22
  %26 = icmp ult i64 %25, 25
  br i1 %26, label %27, label %28

27:                                               ; preds = %24
  call void (ptr, i32, ptr, ...) @BUG_fl(ptr noundef nonnull @.str.5, i32 noundef 167, ptr noundef nonnull @.str.6) #13
  unreachable

28:                                               ; preds = %24
  store i64 24, ptr %21, align 8, !tbaa !20
  %29 = getelementptr inbounds nuw i8, ptr %3, i64 16
  %30 = load ptr, ptr %29, align 8, !tbaa !23
  %.not9.i = icmp eq ptr %30, @strbuf_slopbuf
  br i1 %.not9.i, label %strbuf_setlen.exit, label %31

31:                                               ; preds = %28
  %32 = getelementptr inbounds nuw i8, ptr %30, i64 24
  store i8 0, ptr %32, align 1, !tbaa !24
  br label %strbuf_setlen.exit

strbuf_setlen.exit:                               ; preds = %31, %28, %19
  %33 = call ptr @strbuf_detach(ptr noundef nonnull %3, ptr noundef null) #11
  store ptr %33, ptr %4, align 8, !tbaa !25
  %34 = load i32, ptr @tr2tls_key, align 4, !tbaa !18
  %35 = call i32 @pthread_setspecific(i32 noundef %34, ptr noundef nonnull %4) #11
  call void @llvm.lifetime.end.p0(i64 24, ptr nonnull %3) #11
  ret ptr %4
}